; Function Attrs: mustprogress nofree nounwind uwtable
define void @_ZN11OpenImageIO6v3_1_04SHA16appendEPKvm(ptr noundef nonnull readonly align 8 captures(none) dereferenceable(9) %0, ptr noundef readonly %1, i64 noundef %2) local_unnamed_addr #6 align 2 {
  %4 = getelementptr inbounds nuw i8, ptr %0, i64 8
  %5 = load i8, ptr %4, align 8, !tbaa !14, !range !15, !noundef !16
  %6 = trunc nuw i8 %5 to i1
  br i1 %6, label %7, label %10, !prof !17

7:                                                ; preds = %3
  %8 = load ptr, ptr @stderr, align 8, !tbaa !18
  %9 = tail call i32 (ptr, ptr, ...) @fprintf(ptr noundef %8, ptr noundef nonnull @.str.1, ptr noundef nonnull @.str.2, i32 noundef 69, ptr noundef nonnull @__FUNCTION__._ZN11OpenImageIO6v3_1_04SHA16appendEPKvm, ptr noundef nonnull @.str.3) #20
  br label %10

10:                                               ; preds = %3, %7
  %11 = icmp ne ptr %1, null
  %12 = icmp ne i64 %2, 0
  %or.cond = and i1 %11, %12
  br i1 %or.cond, label %13, label %_ZN11OpenImageIO6v3_1_05CSHA16UpdateEPKhj.exit

13:                                               ; preds = %10
  %14 = load ptr, ptr %0, align 8, !tbaa !10
  %15 = trunc i64 %2 to i32
  %16 = getelementptr inbounds nuw i8, ptr %14, i64 20
  %17 = load i32, ptr %16, align 4, !tbaa !8
  %18 = lshr i32 %17, 3
  %19 = and i32 %18, 63
  %20 = shl i32 %15, 3
  %21 = add i32 %17, %20
  store i32 %21, ptr %16, align 4, !tbaa !8
  %22 = icmp ult i32 %21, %20
  %23 = getelementptr inbounds nuw i8, ptr %14, i64 24
  %24 = load i32, ptr %23, align 4, !tbaa !8
  %25 = zext i1 %22 to i32
  %26 = lshr i32 %15, 29
  %27 = add i32 %24, %26
  %28 = add i32 %27, %25
  store i32 %28, ptr %23, align 4, !tbaa !8
  %29 = add i32 %19, %15
  %30 = icmp ugt i32 %29, 63
  br i1 %30, label %31, label %44

31:                                               ; preds = %13
  %32 = sub nuw nsw i32 64, %19
  %33 = getelementptr inbounds nuw i8, ptr %14, i64 32
  %34 = zext nneg i32 %19 to i64
  %35 = getelementptr inbounds nuw [64 x i8], ptr %33, i64 0, i64 %34
  %36 = zext nneg i32 %32 to i64
  tail call void @llvm.memcpy.p0.p0.i64(ptr noundef nonnull align 1 dereferenceable(1) %35, ptr noundef nonnull readonly align 1 dereferenceable(1) %1, i64 %36, i1 false)
  tail call void @_ZN11OpenImageIO6v3_1_05CSHA19TransformEPjPKh(ptr noundef nonnull align 8 dereferenceable(200) %14, ptr noundef nonnull align 8 dereferenceable(200) %14, ptr noundef nonnull %33)
  %37 = xor i32 %19, 127
  %38 = icmp ult i32 %37, %15
  br i1 %38, label %.lr.ph.i, label %.loopexit.i

.lr.ph.i:                                         ; preds = %31, %.lr.ph.i
  %.023.i = phi i32 [ %41, %.lr.ph.i ], [ %32, %31 ]
  %39 = zext i32 %.023.i to i64
  %40 = getelementptr inbounds nuw i8, ptr %1, i64 %39
  tail call void @_ZN11OpenImageIO6v3_1_05CSHA19TransformEPjPKh(ptr noundef nonnull align 8 dereferenceable(200) %14, ptr noundef nonnull align 8 dereferenceable(200) %14, ptr noundef nonnull readonly %40)
  %41 = add i32 %.023.i, 64
  %42 = add i32 %.023.i, 127
  %43 = icmp ult i32 %42, %15
  br i1 %43, label %.lr.ph.i, label %.loopexit.i, !llvm.loop !20

44:                                               ; preds = %13
  %45 = zext nneg i32 %19 to i64
  br label %.loopexit.i

.loopexit.i:                                      ; preds = %.lr.ph.i, %44, %31
  %.021.i = phi i64 [ %45, %44 ], [ 0, %31 ], [ 0, %.lr.ph.i ]
  %.1.i = phi i32 [ 0, %44 ], [ %32, %31 ], [ %41, %.lr.ph.i ]
  %.not.i = icmp eq i32 %.1.i, %15
  br i1 %.not.i, label %_ZN11OpenImageIO6v3_1_05CSHA16UpdateEPKhj.exit, label %46

46:                                               ; preds = %.loopexit.i
  %47 = sub i32 %15, %.1.i
  %48 = getelementptr inbounds nuw i8, ptr %14, i64 32
  %49 = getelementptr inbounds nuw [64 x i8], ptr %48, i64 0, i64 %.021.i
  %50 = zext i32 %.1.i to i64
  %51 = getelementptr inbounds nuw i8, ptr %1, i64 %50
  %52 = zext i32 %47 to i64
  tail call void @llvm.memcpy.p0.p0.i64(ptr nonnull align 1 %49, ptr nonnull readonly align 1 %51, i64 %52, i1 false)
  br label %_ZN11OpenImageIO6v3_1_05CSHA16UpdateEPKhj.exit

_ZN11OpenImageIO6v3_1_05CSHA16UpdateEPKhj.exit:   ; preds = %46, %.loopexit.i, %10
  ret void
}